; Function Attrs: mustprogress nofree norecurse nosync nounwind willreturn memory(read, argmem: readwrite, inaccessiblemem: none) uwtable
define hidden noundef zeroext i1 @_ZN15fpa_decl_plugin13is_rm_numeralEP4exprR17mpf_rounding_mode(ptr nocapture noundef nonnull readonly align 8 dereferenceable(1008) %this, ptr nocapture noundef readonly %n, ptr nocapture noundef nonnull writeonly align 4 dereferenceable(4) %val) local_unnamed_addr #7 align 2 {
entry:
  %m_family_id = getelementptr inbounds i8, ptr %this, i64 16
  %0 = load i32, ptr %m_family_id, align 8
  %m_kind.i.i = getelementptr inbounds i8, ptr %n, i64 4
  %bf.load.i.i = load i32, ptr %m_kind.i.i, align 4
  %bf.clear.i.i = and i32 %bf.load.i.i, 65535
  %cmp.i = icmp eq i32 %bf.clear.i.i, 0
  br i1 %cmp.i, label %land.rhs.i, label %return

land.rhs.i:                                       ; preds = %entry
  %m_decl.i.i = getelementptr inbounds i8, ptr %n, i64 16
  %1 = load ptr, ptr %m_decl.i.i, align 8
  %m_info.i.i.i = getelementptr inbounds i8, ptr %1, i64 24
  %2 = load ptr, ptr %m_info.i.i.i, align 8
  %tobool.not.i.i.i = icmp eq ptr %2, null
  br i1 %tobool.not.i.i.i, label %return, label %_Z9is_app_ofPK4exprii.exit

_Z9is_app_ofPK4exprii.exit:                       ; preds = %land.rhs.i
  %3 = load i32, ptr %2, align 8
  %cmp.i.i.i.i = icmp eq i32 %3, %0
  %m_kind.i.i.i.i = getelementptr inbounds i8, ptr %2, i64 4
  %4 = load i32, ptr %m_kind.i.i.i.i, align 4
  %cmp2.i.i.i.i = icmp eq i32 %4, 1
  %5 = select i1 %cmp.i.i.i.i, i1 %cmp2.i.i.i.i, i1 false
  br i1 %5, label %return.sink.split, label %_Z9is_app_ofPK4exprii.exit21

_Z9is_app_ofPK4exprii.exit21:                     ; preds = %_Z9is_app_ofPK4exprii.exit
  %6 = load i32, ptr %2, align 8
  %cmp.i.i.i.i18 = icmp eq i32 %6, %0
  %m_kind.i.i.i.i19 = getelementptr inbounds i8, ptr %2, i64 4
  %7 = load i32, ptr %m_kind.i.i.i.i19, align 4
  %cmp2.i.i.i.i20 = icmp eq i32 %7, 0
  %8 = select i1 %cmp.i.i.i.i18, i1 %cmp2.i.i.i.i20, i1 false
  br i1 %8, label %return.sink.split, label %_Z9is_app_ofPK4exprii.exit34

_Z9is_app_ofPK4exprii.exit34:                     ; preds = %_Z9is_app_ofPK4exprii.exit21
  %9 = load i32, ptr %2, align 8
  %cmp.i.i.i.i31 = icmp eq i32 %9, %0
  %m_kind.i.i.i.i32 = getelementptr inbounds i8, ptr %2, i64 4
  %10 = load i32, ptr %m_kind.i.i.i.i32, align 4
  %cmp2.i.i.i.i33 = icmp eq i32 %10, 3
  %11 = select i1 %cmp.i.i.i.i31, i1 %cmp2.i.i.i.i33, i1 false
  br i1 %11, label %return.sink.split, label %_Z9is_app_ofPK4exprii.exit47

_Z9is_app_ofPK4exprii.exit47:                     ; preds = %_Z9is_app_ofPK4exprii.exit34
  %12 = load i32, ptr %2, align 8
  %cmp.i.i.i.i44 = icmp eq i32 %12, %0
  %m_kind.i.i.i.i45 = getelementptr inbounds i8, ptr %2, i64 4
  %13 = load i32, ptr %m_kind.i.i.i.i45, align 4
  %cmp2.i.i.i.i46 = icmp eq i32 %13, 2
  %14 = select i1 %cmp.i.i.i.i44, i1 %cmp2.i.i.i.i46, i1 false
  br i1 %14, label %return.sink.split, label %_Z9is_app_ofPK4exprii.exit60

_Z9is_app_ofPK4exprii.exit60:                     ; preds = %_Z9is_app_ofPK4exprii.exit47
  %15 = load i32, ptr %2, align 8
  %cmp.i.i.i.i57 = icmp eq i32 %15, %0
  %m_kind.i.i.i.i58 = getelementptr inbounds i8, ptr %2, i64 4
  %16 = load i32, ptr %m_kind.i.i.i.i58, align 4
  %cmp2.i.i.i.i59 = icmp eq i32 %16, 4
  %17 = select i1 %cmp.i.i.i.i57, i1 %cmp2.i.i.i.i59, i1 false
  br i1 %17, label %return.sink.split, label %return

return.sink.split:                                ; preds = %_Z9is_app_ofPK4exprii.exit60, %_Z9is_app_ofPK4exprii.exit47, %_Z9is_app_ofPK4exprii.exit34, %_Z9is_app_ofPK4exprii.exit21, %_Z9is_app_ofPK4exprii.exit
  %.sink = phi i32 [ 1, %_Z9is_app_ofPK4exprii.exit ], [ 0, %_Z9is_app_ofPK4exprii.exit21 ], [ 3, %_Z9is_app_ofPK4exprii.exit34 ], [ 2, %_Z9is_app_ofPK4exprii.exit47 ], [ 4, %_Z9is_app_ofPK4exprii.exit60 ]
  store i32 %.sink, ptr %val, align 4
  br label %return

return:                                           ; preds = %return.sink.split, %land.rhs.i, %entry, %_Z9is_app_ofPK4exprii.exit60
  %retval.0 = phi i1 [ false, %_Z9is_app_ofPK4exprii.exit60 ], [ false, %entry ], [ false, %land.rhs.i ], [ true, %return.sink.split ]
  ret i1 %retval.0
}